target datalayout = "e-m:e-p270:32:32-p271:32:32-p272:64:64-i64:64-i128:128-f80:128-n8:16:32:64-S128"
target triple = "x86_64-pc-linux-gnu"

%struct.Bnd_Man_t_ = type { i32, i32, i32, i32, i32, i32, i32, i32, i32, i32, i32, i32, i32, i32, i32, i32, i32, i32, i32, i32, i32, ptr, ptr, ptr, ptr, ptr, ptr, ptr, ptr, ptr, ptr, ptr, ptr, ptr, ptr }
%struct.Vec_Ptr_t_ = type { i32, i32, ptr }
%struct.Vec_Int_t_ = type { i32, i32, ptr }

@pBnd = global ptr null, align 8
@.str = private unnamed_addr constant [10 x i8] c"node %d: \00", align 1
@.str.1 = private unnamed_addr constant [4 x i8] c"%d \00", align 1
@.str.2 = private unnamed_addr constant [3 x i8] c"| \00", align 1
@.str.3 = private unnamed_addr constant [2 x i8] c"\0A\00", align 1

; Function Attrs: nounwind uwtable
define internal i32 @Vec_IntEntry(ptr noundef %0, i32 noundef %1) #0 {
  %3 = alloca ptr, align 8
  %4 = alloca i32, align 4
  store ptr %0, ptr %3, align 8
  store i32 %1, ptr %4, align 4
  %5 = load ptr, ptr %3, align 8
  %6 = getelementptr inbounds %struct.Vec_Int_t_, ptr %5, i32 0, i32 2
  %7 = load ptr, ptr %6, align 8
  %8 = load i32, ptr %4, align 4
  %9 = sext i32 %8 to i64
  %10 = getelementptr inbounds i32, ptr %7, i64 %9
  %11 = load i32, ptr %10, align 4
  ret i32 %11
}

; Function Attrs: nounwind uwtable
define internal i32 @Vec_IntSize(ptr noundef %0) #0 {
  %2 = alloca ptr, align 8
  store ptr %0, ptr %2, align 8
  %3 = load ptr, ptr %2, align 8
  %4 = getelementptr inbounds %struct.Vec_Int_t_, ptr %3, i32 0, i32 1
  %5 = load i32, ptr %4, align 4
  ret i32 %5
}

; Function Attrs: nounwind uwtable
define internal ptr @Vec_PtrEntry(ptr noundef %0, i32 noundef %1) #0 {
  %3 = alloca ptr, align 8
  %4 = alloca i32, align 4
  store ptr %0, ptr %3, align 8
  store i32 %1, ptr %4, align 4
  %5 = load ptr, ptr %3, align 8
  %6 = getelementptr inbounds %struct.Vec_Ptr_t_, ptr %5, i32 0, i32 2
  %7 = load ptr, ptr %6, align 8
  %8 = load i32, ptr %4, align 4
  %9 = sext i32 %8 to i64
  %10 = getelementptr inbounds ptr, ptr %7, i64 %9
  %11 = load ptr, ptr %10, align 8
  ret ptr %11
}

; Function Attrs: nounwind uwtable
define internal i32 @Vec_PtrSize(ptr noundef %0) #0 {
  %2 = alloca ptr, align 8
  store ptr %0, ptr %2, align 8
  %3 = load ptr, ptr %2, align 8
  %4 = getelementptr inbounds %struct.Vec_Ptr_t_, ptr %3, i32 0, i32 1
  %5 = load i32, ptr %4, align 4
  ret i32 %5
}

; Function Attrs: nounwind uwtable
define void @Bnd_ManPrintMappings() #0 {
  %1 = alloca ptr, align 8
  %2 = alloca ptr, align 8
  %3 = alloca ptr, align 8
  %4 = alloca ptr, align 8
  %5 = alloca i32, align 4
  %6 = alloca i32, align 4
  %7 = alloca i32, align 4
  %8 = load ptr, ptr @pBnd, align 8
  %9 = getelementptr inbounds %struct.Bnd_Man_t_, ptr %8, i32 0, i32 21
  %10 = load ptr, ptr %9, align 8
  store ptr %10, ptr %1, align 8
  %11 = load ptr, ptr @pBnd, align 8
  %12 = getelementptr inbounds %struct.Bnd_Man_t_, ptr %11, i32 0, i32 22
  %13 = load ptr, ptr %12, align 8
  store ptr %13, ptr %2, align 8
  store i32 0, ptr %7, align 4
  br label %14

14:                                               ; preds = %66, %0
  %15 = load i32, ptr %7, align 4
  %16 = load ptr, ptr %1, align 8
  %17 = call i32 @Vec_PtrSize(ptr noundef %16)
  %18 = icmp slt i32 %15, %17
  br i1 %18, label %19, label %69

19:                                               ; preds = %14
  %20 = load i32, ptr %7, align 4
  %21 = call i32 (ptr, ...) @printf(ptr noundef @.str, i32 noundef %20)
  %22 = load ptr, ptr %1, align 8
  %23 = load i32, ptr %7, align 4
  %24 = call ptr @Vec_PtrEntry(ptr noundef %22, i32 noundef %23)
  store ptr %24, ptr %3, align 8
  %25 = load ptr, ptr %2, align 8
  %26 = load i32, ptr %7, align 4
  %27 = call ptr @Vec_PtrEntry(ptr noundef %25, i32 noundef %26)
  store ptr %27, ptr %4, align 8
  store i32 0, ptr %5, align 4
  br label %28

28:                                               ; preds = %42, %19
  %29 = load i32, ptr %5, align 4
  %30 = load ptr, ptr %3, align 8
  %31 = call i32 @Vec_IntSize(ptr noundef %30)
  %32 = icmp slt i32 %29, %31
  br i1 %32, label %33, label %37

33:                                               ; preds = %28
  %34 = load ptr, ptr %3, align 8
  %35 = load i32, ptr %5, align 4
  %36 = call i32 @Vec_IntEntry(ptr noundef %34, i32 noundef %35)
  store i32 %36, ptr %6, align 4
  br label %37

37:                                               ; preds = %33, %28
  %38 = phi i1 [ false, %28 ], [ true, %33 ]
  br i1 %38, label %39, label %45

39:                                               ; preds = %37
  %40 = load i32, ptr %6, align 4
  %41 = call i32 (ptr, ...) @printf(ptr noundef @.str.1, i32 noundef %40)
  br label %42

42:                                               ; preds = %39
  %43 = load i32, ptr %5, align 4
  %44 = add nsw i32 %43, 1
  store i32 %44, ptr %5, align 4
  br label %28, !llvm.loop !16

45:                                               ; preds = %37
  %46 = call i32 (ptr, ...) @printf(ptr noundef @.str.2)
  store i32 0, ptr %5, align 4
  br label %47

47:                                               ; preds = %61, %45
  %48 = load i32, ptr %5, align 4
  %49 = load ptr, ptr %4, align 8
  %50 = call i32 @Vec_IntSize(ptr noundef %49)
  %51 = icmp slt i32 %48, %50
  br i1 %51, label %52, label %56

52:                                               ; preds = %47
  %53 = load ptr, ptr %4, align 8
  %54 = load i32, ptr %5, align 4
  %55 = call i32 @Vec_IntEntry(ptr noundef %53, i32 noundef %54)
  store i32 %55, ptr %6, align 4
  br label %56

56:                                               ; preds = %52, %47
  %57 = phi i1 [ false, %47 ], [ true, %52 ]
  br i1 %57, label %58, label %64

58:                                               ; preds = %56
  %59 = load i32, ptr %6, align 4
  %60 = call i32 (ptr, ...) @printf(ptr noundef @.str.1, i32 noundef %59)
  br label %61

61:                                               ; preds = %58
  %62 = load i32, ptr %5, align 4
  %63 = add nsw i32 %62, 1
  store i32 %63, ptr %5, align 4
  br label %47, !llvm.loop !17

64:                                               ; preds = %56
  %65 = call i32 (ptr, ...) @printf(ptr noundef @.str.3)
  br label %66

66:                                               ; preds = %64
  %67 = load i32, ptr %7, align 4
  %68 = add nsw i32 %67, 1
  store i32 %68, ptr %7, align 4
  br label %14, !llvm.loop !18

69:                                               ; preds = %14
  ret void
}