; Function Attrs: nofree nounwind uwtable
define void @Bnd_ManPrintMappings() local_unnamed_addr #6 {
  %1 = load ptr, ptr @pBnd, align 8
  %2 = getelementptr inbounds nuw i8, ptr %1, i64 88
  %3 = load ptr, ptr %2, align 8
  %4 = getelementptr i8, ptr %3, i64 4
  %.val33 = load i32, ptr %4, align 4
  %5 = icmp sgt i32 %.val33, 0
  br i1 %5, label %.lr.ph35, label %._crit_edge

.lr.ph35:                                         ; preds = %0
  %6 = getelementptr inbounds nuw i8, ptr %1, i64 96
  %7 = load ptr, ptr %6, align 8
  %8 = getelementptr i8, ptr %3, i64 8
  %9 = getelementptr i8, ptr %7, i64 8
  br label %10

10:                                               ; preds = %.lr.ph35, %.critedge2
  %indvars.iv40 = phi i64 [ 0, %.lr.ph35 ], [ %indvars.iv.next41, %.critedge2 ]
  %11 = trunc nuw nsw i64 %indvars.iv40 to i32
  %12 = tail call i32 (ptr, ...) @printf(ptr noundef nonnull dereferenceable(1) @.str, i32 noundef %11)
  %.val25 = load ptr, ptr %8, align 8
  %13 = getelementptr inbounds nuw ptr, ptr %.val25, i64 %indvars.iv40
  %14 = load ptr, ptr %13, align 8
  %.val24 = load ptr, ptr %9, align 8
  %15 = getelementptr inbounds nuw ptr, ptr %.val24, i64 %indvars.iv40
  %16 = load ptr, ptr %15, align 8
  %17 = getelementptr i8, ptr %14, i64 4
  %.val2328 = load i32, ptr %17, align 4
  %18 = icmp sgt i32 %.val2328, 0
  br i1 %18, label %.lr.ph, label %.critedge

.lr.ph:                                           ; preds = %10
  %19 = getelementptr i8, ptr %14, i64 8
  br label %20

20:                                               ; preds = %.lr.ph, %20
  %indvars.iv = phi i64 [ 0, %.lr.ph ], [ %indvars.iv.next, %20 ]
  %.val27 = load ptr, ptr %19, align 8
  %21 = getelementptr inbounds nuw i32, ptr %.val27, i64 %indvars.iv
  %22 = load i32, ptr %21, align 4
  %23 = tail call i32 (ptr, ...) @printf(ptr noundef nonnull dereferenceable(1) @.str.1, i32 noundef %22)
  %indvars.iv.next = add nuw nsw i64 %indvars.iv, 1
  %.val23 = load i32, ptr %17, align 4
  %24 = sext i32 %.val23 to i64
  %25 = icmp slt i64 %indvars.iv.next, %24
  br i1 %25, label %20, label %.critedge, !llvm.loop !18

.critedge:                                        ; preds = %20, %10
  %26 = tail call i32 (ptr, ...) @printf(ptr noundef nonnull dereferenceable(1) @.str.2)
  %27 = getelementptr i8, ptr %16, i64 4
  %.val2230 = load i32, ptr %27, align 4
  %28 = icmp sgt i32 %.val2230, 0
  br i1 %28, label %.lr.ph32, label %.critedge2

.lr.ph32:                                         ; preds = %.critedge
  %29 = getelementptr i8, ptr %16, i64 8
  br label %30

30:                                               ; preds = %.lr.ph32, %30
  %indvars.iv37 = phi i64 [ 0, %.lr.ph32 ], [ %indvars.iv.next38, %30 ]
  %.val26 = load ptr, ptr %29, align 8
  %31 = getelementptr inbounds nuw i32, ptr %.val26, i64 %indvars.iv37
  %32 = load i32, ptr %31, align 4
  %33 = tail call i32 (ptr, ...) @printf(ptr noundef nonnull dereferenceable(1) @.str.1, i32 noundef %32)
  %indvars.iv.next38 = add nuw nsw i64 %indvars.iv37, 1
  %.val22 = load i32, ptr %27, align 4
  %34 = sext i32 %.val22 to i64
  %35 = icmp slt i64 %indvars.iv.next38, %34
  br i1 %35, label %30, label %.critedge2, !llvm.loop !19

.critedge2:                                       ; preds = %30, %.critedge
  %putchar = tail call i32 @putchar(i32 10)
  %indvars.iv.next41 = add nuw nsw i64 %indvars.iv40, 1
  %.val = load i32, ptr %4, align 4
  %36 = sext i32 %.val to i64
  %37 = icmp slt i64 %indvars.iv.next41, %36
  br i1 %37, label %10, label %._crit_edge, !llvm.loop !20

._crit_edge:                                      ; preds = %.critedge2, %0
  ret void
}